; Function Attrs: mustprogress nofree nounwind uwtable
define dso_local noundef nonnull align 8 dereferenceable(40) ptr @_ZN4Json5Value13nullSingletonEv() local_unnamed_addr #3 align 2 personality ptr @__gxx_personality_v0 {
  %1 = load atomic i8, ptr @_ZGVZN4Json5Value13nullSingletonEvE10nullStatic acquire, align 8
  %2 = icmp eq i8 %1, 0
  br i1 %2, label %3, label %9, !prof !5

3:                                                ; preds = %0
  %4 = tail call i32 @__cxa_guard_acquire(ptr nonnull @_ZGVZN4Json5Value13nullSingletonEvE10nullStatic) #35
  %.not = icmp eq i32 %4, 0
  br i1 %.not, label %9, label %5

5:                                                ; preds = %3
  %6 = load i16, ptr getelementptr inbounds (%"class.Json::Value", ptr @_ZZN4Json5Value13nullSingletonEvE10nullStatic, i64 0, i32 1, i32 0), align 8
  %7 = and i16 %6, -512
  store i16 %7, ptr getelementptr inbounds (%"class.Json::Value", ptr @_ZZN4Json5Value13nullSingletonEvE10nullStatic, i64 0, i32 1, i32 0), align 8
  tail call void @llvm.memset.p0.i64(ptr noundef nonnull align 8 dereferenceable(24) getelementptr inbounds (%"class.Json::Value", ptr @_ZZN4Json5Value13nullSingletonEvE10nullStatic, i64 0, i32 2, i32 0, i32 0, i32 0, i32 0, i32 0, i32 0, i32 0), i8 0, i64 24, i1 false)
  %8 = tail call i32 @__cxa_atexit(ptr nonnull @_ZN4Json5ValueD2Ev, ptr nonnull @_ZZN4Json5Value13nullSingletonEvE10nullStatic, ptr nonnull @__dso_handle) #35
  tail call void @__cxa_guard_release(ptr nonnull @_ZGVZN4Json5Value13nullSingletonEvE10nullStatic) #35
  br label %9

9:                                                ; preds = %5, %3, %0
  ret ptr @_ZZN4Json5Value13nullSingletonEvE10nullStatic
}